target datalayout = "e-m:e-p270:32:32-p271:32:32-p272:64:64-i64:64-i128:128-f80:128-n8:16:32:64-S128"
target triple = "x86_64-pc-linux-gnu"

%struct._lv_matrix_t = type { [3 x [3 x float]] }
%struct._lv_array_t = type { ptr, i32, i32, i32, i8 }
%struct.lv_area_t = type { i32, i32, i32, i32 }
%struct.lv_color32_t = type { i8, i8, i8, i8 }
%struct.lv_color_t = type { i8, i8, i8 }
%struct._lv_vector_dsc_t = type { ptr, %struct._lv_vector_draw_dsc_t, %struct._lv_draw_vector_task_dsc_t }
%struct._lv_vector_draw_dsc_t = type { %struct._lv_vector_fill_dsc_t, %struct._lv_vector_stroke_dsc_t, %struct._lv_matrix_t, i32, %struct.lv_area_t }
%struct._lv_vector_fill_dsc_t = type { i32, %struct.lv_color32_t, i8, i32, %struct._lv_draw_image_dsc_t, %struct._lv_vector_gradient_t, %struct._lv_matrix_t }
%struct._lv_draw_image_dsc_t = type { %struct.lv_draw_dsc_base_t, ptr, %struct.lv_image_header_t, i32, i32, i32, i32, i32, %struct.lv_point_t, %struct.lv_color_t, i8, i8, i8, ptr, %struct.lv_area_t, i32, ptr }
%struct.lv_draw_dsc_base_t = type { ptr, i32, i32, i32, ptr, i64, ptr }
%struct.lv_image_header_t = type <{ i64, i32 }>
%struct.lv_point_t = type { i32, i32 }
%struct._lv_vector_gradient_t = type { i32, [2 x %struct.lv_gradient_stop_t], i16, float, float, float, float, float, float, float, i32 }
%struct.lv_gradient_stop_t = type { %struct.lv_color_t, i8, i8 }
%struct._lv_vector_stroke_dsc_t = type { i32, %struct.lv_color32_t, i8, float, %struct._lv_array_t, i32, i32, i16, %struct._lv_vector_gradient_t, %struct._lv_matrix_t }
%struct._lv_draw_vector_task_dsc_t = type { %struct.lv_draw_dsc_base_t, ptr }

; Function Attrs: nounwind uwtable
define void @lv_vector_dsc_set_stroke_radial_gradient(ptr noundef %0, float noundef %1, float noundef %2, float noundef %3) #0 {
  %5 = alloca ptr, align 8
  %6 = alloca float, align 4
  %7 = alloca float, align 4
  %8 = alloca float, align 4
  store ptr %0, ptr %5, align 8, !tbaa !3
  store float %1, ptr %6, align 4, !tbaa !10
  store float %2, ptr %7, align 4, !tbaa !10
  store float %3, ptr %8, align 4, !tbaa !10
  %9 = load ptr, ptr %5, align 8, !tbaa !3
  %10 = getelementptr inbounds nuw %struct._lv_vector_dsc_t, ptr %9, i32 0, i32 1
  %11 = getelementptr inbounds nuw %struct._lv_vector_draw_dsc_t, ptr %10, i32 0, i32 1
  %12 = getelementptr inbounds nuw %struct._lv_vector_stroke_dsc_t, ptr %11, i32 0, i32 0
  store i32 2, ptr %12, align 8, !tbaa !82
  %13 = load ptr, ptr %5, align 8, !tbaa !3
  %14 = getelementptr inbounds nuw %struct._lv_vector_dsc_t, ptr %13, i32 0, i32 1
  %15 = getelementptr inbounds nuw %struct._lv_vector_draw_dsc_t, ptr %14, i32 0, i32 1
  %16 = getelementptr inbounds nuw %struct._lv_vector_stroke_dsc_t, ptr %15, i32 0, i32 8
  %17 = getelementptr inbounds nuw %struct._lv_vector_gradient_t, ptr %16, i32 0, i32 0
  store i32 1, ptr %17, align 4, !tbaa !89
  %18 = load float, ptr %6, align 4, !tbaa !10
  %19 = load ptr, ptr %5, align 8, !tbaa !3
  %20 = getelementptr inbounds nuw %struct._lv_vector_dsc_t, ptr %19, i32 0, i32 1
  %21 = getelementptr inbounds nuw %struct._lv_vector_draw_dsc_t, ptr %20, i32 0, i32 1
  %22 = getelementptr inbounds nuw %struct._lv_vector_stroke_dsc_t, ptr %21, i32 0, i32 8
  %23 = getelementptr inbounds nuw %struct._lv_vector_gradient_t, ptr %22, i32 0, i32 7
  store float %18, ptr %23, align 4, !tbaa !94
  %24 = load float, ptr %7, align 4, !tbaa !10
  %25 = load ptr, ptr %5, align 8, !tbaa !3
  %26 = getelementptr inbounds nuw %struct._lv_vector_dsc_t, ptr %25, i32 0, i32 1
  %27 = getelementptr inbounds nuw %struct._lv_vector_draw_dsc_t, ptr %26, i32 0, i32 1
  %28 = getelementptr inbounds nuw %struct._lv_vector_stroke_dsc_t, ptr %27, i32 0, i32 8
  %29 = getelementptr inbounds nuw %struct._lv_vector_gradient_t, ptr %28, i32 0, i32 8
  store float %24, ptr %29, align 4, !tbaa !95
  %30 = load float, ptr %8, align 4, !tbaa !10
  %31 = load ptr, ptr %5, align 8, !tbaa !3
  %32 = getelementptr inbounds nuw %struct._lv_vector_dsc_t, ptr %31, i32 0, i32 1
  %33 = getelementptr inbounds nuw %struct._lv_vector_draw_dsc_t, ptr %32, i32 0, i32 1
  %34 = getelementptr inbounds nuw %struct._lv_vector_stroke_dsc_t, ptr %33, i32 0, i32 8
  %35 = getelementptr inbounds nuw %struct._lv_vector_gradient_t, ptr %34, i32 0, i32 9
  store float %30, ptr %35, align 4, !tbaa !96
  ret void
}